target datalayout = "e-m:e-p270:32:32-p271:32:32-p272:64:64-i64:64-i128:128-f80:128-n8:16:32:64-S128"
target triple = "x86_64-unknown-linux-gnu"

%struct.btQuantizedBvhNode = type { [3 x i16], [3 x i16], i32 }
%class.btVector3 = type { [4 x float] }
%class.btBvhSubtreeInfo = type { [3 x i16], [3 x i16], i32, i32, [3 x i32] }
%class.btQuantizedBvh = type <{ ptr, %class.btVector3, %class.btVector3, %class.btVector3, i32, i32, i8, [7 x i8], %class.btAlignedObjectArray, %class.btAlignedObjectArray, %class.btAlignedObjectArray.0, %class.btAlignedObjectArray.0, i32, [4 x i8], %class.btAlignedObjectArray.4, i32, [4 x i8] }>
%class.btAlignedObjectArray = type <{ %class.btAlignedAllocator, [3 x i8], i32, i32, [4 x i8], ptr, i8, [7 x i8] }>
%class.btAlignedAllocator = type { i8 }
%class.btAlignedObjectArray.0 = type <{ %class.btAlignedAllocator.1, [3 x i8], i32, i32, [4 x i8], ptr, i8, [7 x i8] }>
%class.btAlignedAllocator.1 = type { i8 }
%class.btAlignedObjectArray.4 = type <{ %class.btAlignedAllocator.5, [3 x i8], i32, i32, [4 x i8], ptr, i8, [7 x i8] }>
%class.btAlignedAllocator.5 = type { i8 }

; Function Attrs: mustprogress nounwind uwtable
define linkonce_odr dso_local void @_ZN16btBvhSubtreeInfo23setAabbFromQuantizeNodeERK18btQuantizedBvhNode(ptr noundef nonnull align 4 dereferenceable(32) %this, ptr noundef nonnull align 4 dereferenceable(16) %quantizedNode) #1 comdat align 2 {
entry:
  %this.addr = alloca ptr, align 8
  %quantizedNode.addr = alloca ptr, align 8
  store ptr %this, ptr %this.addr, align 8
  store ptr %quantizedNode, ptr %quantizedNode.addr, align 8
  %this1 = load ptr, ptr %this.addr, align 8
  %0 = load ptr, ptr %quantizedNode.addr, align 8
  %m_quantizedAabbMin = getelementptr inbounds %struct.btQuantizedBvhNode, ptr %0, i32 0, i32 0
  %arrayidx = getelementptr inbounds [3 x i16], ptr %m_quantizedAabbMin, i64 0, i64 0
  %1 = load i16, ptr %arrayidx, align 4
  %m_quantizedAabbMin2 = getelementptr inbounds %class.btBvhSubtreeInfo, ptr %this1, i32 0, i32 0
  %arrayidx3 = getelementptr inbounds [3 x i16], ptr %m_quantizedAabbMin2, i64 0, i64 0
  store i16 %1, ptr %arrayidx3, align 4
  %2 = load ptr, ptr %quantizedNode.addr, align 8
  %m_quantizedAabbMin4 = getelementptr inbounds %struct.btQuantizedBvhNode, ptr %2, i32 0, i32 0
  %arrayidx5 = getelementptr inbounds [3 x i16], ptr %m_quantizedAabbMin4, i64 0, i64 1
  %3 = load i16, ptr %arrayidx5, align 2
  %m_quantizedAabbMin6 = getelementptr inbounds %class.btBvhSubtreeInfo, ptr %this1, i32 0, i32 0
  %arrayidx7 = getelementptr inbounds [3 x i16], ptr %m_quantizedAabbMin6, i64 0, i64 1
  store i16 %3, ptr %arrayidx7, align 2
  %4 = load ptr, ptr %quantizedNode.addr, align 8
  %m_quantizedAabbMin8 = getelementptr inbounds %struct.btQuantizedBvhNode, ptr %4, i32 0, i32 0
  %arrayidx9 = getelementptr inbounds [3 x i16], ptr %m_quantizedAabbMin8, i64 0, i64 2
  %5 = load i16, ptr %arrayidx9, align 4
  %m_quantizedAabbMin10 = getelementptr inbounds %class.btBvhSubtreeInfo, ptr %this1, i32 0, i32 0
  %arrayidx11 = getelementptr inbounds [3 x i16], ptr %m_quantizedAabbMin10, i64 0, i64 2
  store i16 %5, ptr %arrayidx11, align 4
  %6 = load ptr, ptr %quantizedNode.addr, align 8
  %m_quantizedAabbMax = getelementptr inbounds %struct.btQuantizedBvhNode, ptr %6, i32 0, i32 1
  %arrayidx12 = getelementptr inbounds [3 x i16], ptr %m_quantizedAabbMax, i64 0, i64 0
  %7 = load i16, ptr %arrayidx12, align 2
  %m_quantizedAabbMax13 = getelementptr inbounds %class.btBvhSubtreeInfo, ptr %this1, i32 0, i32 1
  %arrayidx14 = getelementptr inbounds [3 x i16], ptr %m_quantizedAabbMax13, i64 0, i64 0
  store i16 %7, ptr %arrayidx14, align 2
  %8 = load ptr, ptr %quantizedNode.addr, align 8
  %m_quantizedAabbMax15 = getelementptr inbounds %struct.btQuantizedBvhNode, ptr %8, i32 0, i32 1
  %arrayidx16 = getelementptr inbounds [3 x i16], ptr %m_quantizedAabbMax15, i64 0, i64 1
  %9 = load i16, ptr %arrayidx16, align 2
  %m_quantizedAabbMax17 = getelementptr inbounds %class.btBvhSubtreeInfo, ptr %this1, i32 0, i32 1
  %arrayidx18 = getelementptr inbounds [3 x i16], ptr %m_quantizedAabbMax17, i64 0, i64 1
  store i16 %9, ptr %arrayidx18, align 2
  %10 = load ptr, ptr %quantizedNode.addr, align 8
  %m_quantizedAabbMax19 = getelementptr inbounds %struct.btQuantizedBvhNode, ptr %10, i32 0, i32 1
  %arrayidx20 = getelementptr inbounds [3 x i16], ptr %m_quantizedAabbMax19, i64 0, i64 2
  %11 = load i16, ptr %arrayidx20, align 2
  %m_quantizedAabbMax21 = getelementptr inbounds %class.btBvhSubtreeInfo, ptr %this1, i32 0, i32 1
  %arrayidx22 = getelementptr inbounds [3 x i16], ptr %m_quantizedAabbMax21, i64 0, i64 2
  store i16 %11, ptr %arrayidx22, align 2
  ret void
}

; Function Attrs: mustprogress nounwind uwtable
define linkonce_odr dso_local noundef nonnull align 4 dereferenceable(16) ptr @_ZN20btAlignedObjectArrayI18btQuantizedBvhNodeEixEi(ptr noundef nonnull align 8 dereferenceable(25) %this, i32 noundef %n) #1 comdat align 2 {
entry:
  %this.addr = alloca ptr, align 8
  %n.addr = alloca i32, align 4
  store ptr %this, ptr %this.addr, align 8
  store i32 %n, ptr %n.addr, align 4
  %this1 = load ptr, ptr %this.addr, align 8
  %m_data = getelementptr inbounds %class.btAlignedObjectArray.0, ptr %this1, i32 0, i32 5
  %0 = load ptr, ptr %m_data, align 8
  %1 = load i32, ptr %n.addr, align 4
  %idxprom = sext i32 %1 to i64
  %arrayidx = getelementptr inbounds %struct.btQuantizedBvhNode, ptr %0, i64 %idxprom
  ret ptr %arrayidx
}

; Function Attrs: mustprogress nounwind uwtable
define linkonce_odr dso_local noundef nonnull align 4 dereferenceable(32) ptr @_ZN20btAlignedObjectArrayI16btBvhSubtreeInfoEixEi(ptr noundef nonnull align 8 dereferenceable(25) %this, i32 noundef %n) #1 comdat align 2 {
entry:
  %this.addr = alloca ptr, align 8
  %n.addr = alloca i32, align 4
  store ptr %this, ptr %this.addr, align 8
  store i32 %n, ptr %n.addr, align 4
  %this1 = load ptr, ptr %this.addr, align 8
  %m_data = getelementptr inbounds %class.btAlignedObjectArray.4, ptr %this1, i32 0, i32 5
  %0 = load ptr, ptr %m_data, align 8
  %1 = load i32, ptr %n.addr, align 4
  %idxprom = sext i32 %1 to i64
  %arrayidx = getelementptr inbounds %class.btBvhSubtreeInfo, ptr %0, i64 %idxprom
  ret ptr %arrayidx
}

; Function Attrs: mustprogress nounwind uwtable
define linkonce_odr dso_local noundef i32 @_ZNK20btAlignedObjectArrayI16btBvhSubtreeInfoE4sizeEv(ptr noundef nonnull align 8 dereferenceable(25) %this) #1 comdat align 2 {
entry:
  %this.addr = alloca ptr, align 8
  store ptr %this, ptr %this.addr, align 8
  %this1 = load ptr, ptr %this.addr, align 8
  %m_size = getelementptr inbounds %class.btAlignedObjectArray.4, ptr %this1, i32 0, i32 2
  %0 = load i32, ptr %m_size, align 4
  ret i32 %0
}

; Function Attrs: mustprogress uwtable
define dso_local void @_ZN14btOptimizedBvh5refitEP23btStridingMeshInterfaceRK9btVector3S4_(ptr noundef nonnull align 8 dereferenceable(244) %this, ptr noundef %meshInterface, ptr noundef nonnull align 4 dereferenceable(16) %aabbMin, ptr noundef nonnull align 4 dereferenceable(16) %aabbMax) #2 align 2 {
entry:
  %this.addr = alloca ptr, align 8
  %meshInterface.addr = alloca ptr, align 8
  %aabbMin.addr = alloca ptr, align 8
  %aabbMax.addr = alloca ptr, align 8
  %i = alloca i32, align 4
  %subtree = alloca ptr, align 8
  store ptr %this, ptr %this.addr, align 8
  store ptr %meshInterface, ptr %meshInterface.addr, align 8
  store ptr %aabbMin, ptr %aabbMin.addr, align 8
  store ptr %aabbMax, ptr %aabbMax.addr, align 8
  %this1 = load ptr, ptr %this.addr, align 8
  %m_useQuantization = getelementptr inbounds %class.btQuantizedBvh, ptr %this1, i32 0, i32 6
  %0 = load i8, ptr %m_useQuantization, align 8
  %tobool = trunc i8 %0 to i1
  br i1 %tobool, label %if.then, label %if.else

if.then:                                          ; preds = %entry
  %1 = load ptr, ptr %aabbMin.addr, align 8
  %2 = load ptr, ptr %aabbMax.addr, align 8
  call void @_ZN14btQuantizedBvh21setQuantizationValuesERK9btVector3S2_f(ptr noundef nonnull align 8 dereferenceable(244) %this1, ptr noundef nonnull align 4 dereferenceable(16) %1, ptr noundef nonnull align 4 dereferenceable(16) %2, float noundef 1.000000e+00)
  %3 = load ptr, ptr %meshInterface.addr, align 8
  %m_curNodeIndex = getelementptr inbounds %class.btQuantizedBvh, ptr %this1, i32 0, i32 5
  %4 = load i32, ptr %m_curNodeIndex, align 4
  call void @_ZN14btOptimizedBvh14updateBvhNodesEP23btStridingMeshInterfaceiii(ptr noundef nonnull align 8 dereferenceable(244) %this1, ptr noundef %3, i32 noundef 0, i32 noundef %4, i32 noundef 0)
  store i32 0, ptr %i, align 4
  br label %for.cond

for.cond:                                         ; preds = %for.inc, %if.then
  %5 = load i32, ptr %i, align 4
  %m_SubtreeHeaders = getelementptr inbounds %class.btQuantizedBvh, ptr %this1, i32 0, i32 14
  %call = call noundef i32 @_ZNK20btAlignedObjectArrayI16btBvhSubtreeInfoE4sizeEv(ptr noundef nonnull align 8 dereferenceable(25) %m_SubtreeHeaders)
  %cmp = icmp slt i32 %5, %call
  br i1 %cmp, label %for.body, label %for.end

for.body:                                         ; preds = %for.cond
  %m_SubtreeHeaders2 = getelementptr inbounds %class.btQuantizedBvh, ptr %this1, i32 0, i32 14
  %6 = load i32, ptr %i, align 4
  %call3 = call noundef nonnull align 4 dereferenceable(32) ptr @_ZN20btAlignedObjectArrayI16btBvhSubtreeInfoEixEi(ptr noundef nonnull align 8 dereferenceable(25) %m_SubtreeHeaders2, i32 noundef %6)
  store ptr %call3, ptr %subtree, align 8
  %7 = load ptr, ptr %subtree, align 8
  %m_quantizedContiguousNodes = getelementptr inbounds %class.btQuantizedBvh, ptr %this1, i32 0, i32 11
  %8 = load ptr, ptr %subtree, align 8
  %m_rootNodeIndex = getelementptr inbounds %class.btBvhSubtreeInfo, ptr %8, i32 0, i32 2
  %9 = load i32, ptr %m_rootNodeIndex, align 4
  %call4 = call noundef nonnull align 4 dereferenceable(16) ptr @_ZN20btAlignedObjectArrayI18btQuantizedBvhNodeEixEi(ptr noundef nonnull align 8 dereferenceable(25) %m_quantizedContiguousNodes, i32 noundef %9)
  call void @_ZN16btBvhSubtreeInfo23setAabbFromQuantizeNodeERK18btQuantizedBvhNode(ptr noundef nonnull align 4 dereferenceable(32) %7, ptr noundef nonnull align 4 dereferenceable(16) %call4)
  br label %for.inc

for.inc:                                          ; preds = %for.body
  %10 = load i32, ptr %i, align 4
  %inc = add nsw i32 %10, 1
  store i32 %inc, ptr %i, align 4
  br label %for.cond, !llvm.loop !10

for.end:                                          ; preds = %for.cond
  br label %if.end

if.else:                                          ; preds = %entry
  br label %if.end

if.end:                                           ; preds = %if.else, %for.end
  ret void
}