; Function Attrs: mustprogress uwtable
define dso_local void @_ZN14btOptimizedBvh5refitEP23btStridingMeshInterfaceRK9btVector3S4_(ptr noundef nonnull align 8 dereferenceable(244) %this, ptr noundef %meshInterface, ptr noundef nonnull align 4 dereferenceable(16) %aabbMin, ptr noundef nonnull align 4 dereferenceable(16) %aabbMax) local_unnamed_addr #0 align 2 {
entry:
  %m_useQuantization = getelementptr inbounds i8, ptr %this, i64 64
  %0 = load i8, ptr %m_useQuantization, align 8
  %1 = and i8 %0, 1
  %tobool.not = icmp eq i8 %1, 0
  br i1 %tobool.not, label %if.end, label %if.then

if.then:                                          ; preds = %entry
  tail call void @_ZN14btQuantizedBvh21setQuantizationValuesERK9btVector3S2_f(ptr noundef nonnull align 8 dereferenceable(244) %this, ptr noundef nonnull align 4 dereferenceable(16) %aabbMin, ptr noundef nonnull align 4 dereferenceable(16) %aabbMax, float noundef 1.000000e+00)
  %m_curNodeIndex = getelementptr inbounds i8, ptr %this, i64 60
  %2 = load i32, ptr %m_curNodeIndex, align 4
  tail call void @_ZN14btOptimizedBvh14updateBvhNodesEP23btStridingMeshInterfaceiii(ptr noundef nonnull align 8 dereferenceable(244) %this, ptr noundef %meshInterface, i32 noundef 0, i32 noundef %2, i32 poison)
  %m_size.i = getelementptr inbounds i8, ptr %this, i64 212
  %3 = load i32, ptr %m_size.i, align 4
  %cmp7 = icmp sgt i32 %3, 0
  br i1 %cmp7, label %for.body.lr.ph, label %if.end

for.body.lr.ph:                                   ; preds = %if.then
  %m_data.i = getelementptr inbounds i8, ptr %this, i64 224
  %m_data.i4 = getelementptr inbounds i8, ptr %this, i64 184
  br label %for.body

for.body:                                         ; preds = %for.body.lr.ph, %for.body
  %indvars.iv = phi i64 [ 0, %for.body.lr.ph ], [ %indvars.iv.next, %for.body ]
  %4 = load ptr, ptr %m_data.i, align 8
  %arrayidx.i = getelementptr inbounds %class.btBvhSubtreeInfo, ptr %4, i64 %indvars.iv
  %m_rootNodeIndex = getelementptr inbounds i8, ptr %arrayidx.i, i64 12
  %5 = load i32, ptr %m_rootNodeIndex, align 4
  %6 = load ptr, ptr %m_data.i4, align 8
  %idxprom.i5 = sext i32 %5 to i64
  %arrayidx.i6 = getelementptr inbounds %struct.btQuantizedBvhNode, ptr %6, i64 %idxprom.i5
  %7 = load i16, ptr %arrayidx.i6, align 4
  store i16 %7, ptr %arrayidx.i, align 4
  %arrayidx5.i = getelementptr inbounds i8, ptr %arrayidx.i6, i64 2
  %8 = load i16, ptr %arrayidx5.i, align 2
  %arrayidx7.i = getelementptr inbounds i8, ptr %arrayidx.i, i64 2
  store i16 %8, ptr %arrayidx7.i, align 2
  %arrayidx9.i = getelementptr inbounds i8, ptr %arrayidx.i6, i64 4
  %9 = load i16, ptr %arrayidx9.i, align 4
  %arrayidx11.i = getelementptr inbounds i8, ptr %arrayidx.i, i64 4
  store i16 %9, ptr %arrayidx11.i, align 4
  %m_quantizedAabbMax.i = getelementptr inbounds i8, ptr %arrayidx.i6, i64 6
  %10 = load i16, ptr %m_quantizedAabbMax.i, align 2
  %m_quantizedAabbMax13.i = getelementptr inbounds i8, ptr %arrayidx.i, i64 6
  store i16 %10, ptr %m_quantizedAabbMax13.i, align 2
  %arrayidx16.i = getelementptr inbounds i8, ptr %arrayidx.i6, i64 8
  %11 = load i16, ptr %arrayidx16.i, align 2
  %arrayidx18.i = getelementptr inbounds i8, ptr %arrayidx.i, i64 8
  store i16 %11, ptr %arrayidx18.i, align 2
  %arrayidx20.i = getelementptr inbounds i8, ptr %arrayidx.i6, i64 10
  %12 = load i16, ptr %arrayidx20.i, align 2
  %arrayidx22.i = getelementptr inbounds i8, ptr %arrayidx.i, i64 10
  store i16 %12, ptr %arrayidx22.i, align 2
  %indvars.iv.next = add nuw nsw i64 %indvars.iv, 1
  %13 = load i32, ptr %m_size.i, align 4
  %14 = sext i32 %13 to i64
  %cmp = icmp slt i64 %indvars.iv.next, %14
  br i1 %cmp, label %for.body, label %if.end, !llvm.loop !11

if.end:                                           ; preds = %for.body, %if.then, %entry
  ret void
}